target datalayout = "e-m:e-p270:32:32-p271:32:32-p272:64:64-i64:64-i128:128-f80:128-n8:16:32:64-S128"
target triple = "x86_64-pc-linux-gnu"

%struct._cmstransform_struct = type { i32, i32, ptr, ptr, ptr, ptr, ptr, %struct._cmsCACHE, ptr, ptr, ptr, ptr, i32, i32, %struct.cmsCIEXYZ, %struct.cmsCIEXYZ, ptr, i32, double, i32, ptr, ptr, ptr, ptr, ptr, i32, i32 }
%struct._cmsCACHE = type { [16 x i16], [16 x i16] }
%struct.cmsCIEXYZ = type { double, double, double }

; Function Attrs: nounwind uwtable
define internal i32 @PixelSize(i32 noundef %0) #0 {
  %2 = alloca i32, align 4
  %3 = alloca i32, align 4
  %4 = alloca i32, align 4
  store i32 %0, ptr %3, align 4
  %5 = load i32, ptr %3, align 4
  %6 = and i32 %5, 7
  store i32 %6, ptr %4, align 4
  %7 = load i32, ptr %4, align 4
  %8 = icmp eq i32 %7, 0
  br i1 %8, label %9, label %10

9:                                                ; preds = %1
  store i32 8, ptr %2, align 4
  br label %12

10:                                               ; preds = %1
  %11 = load i32, ptr %4, align 4
  store i32 %11, ptr %2, align 4
  br label %12

12:                                               ; preds = %10, %9
  %13 = load i32, ptr %2, align 4
  ret i32 %13
}

; Function Attrs: nounwind uwtable
define internal i32 @IsInkSpace(i32 noundef %0) #0 {
  %2 = alloca i32, align 4
  %3 = alloca i32, align 4
  store i32 %0, ptr %3, align 4
  %4 = load i32, ptr %3, align 4
  %5 = lshr i32 %4, 16
  %6 = and i32 %5, 31
  switch i32 %6, label %8 [
    i32 5, label %7
    i32 6, label %7
    i32 19, label %7
    i32 20, label %7
    i32 21, label %7
    i32 22, label %7
    i32 23, label %7
    i32 24, label %7
    i32 25, label %7
    i32 26, label %7
    i32 27, label %7
    i32 28, label %7
    i32 29, label %7
  ]

7:                                                ; preds = %1, %1, %1, %1, %1, %1, %1, %1, %1, %1, %1, %1, %1
  store i32 1, ptr %2, align 4
  br label %9

8:                                                ; preds = %1
  store i32 0, ptr %2, align 4
  br label %9

9:                                                ; preds = %8, %7
  %10 = load i32, ptr %2, align 4
  ret i32 %10
}

; Function Attrs: nounwind uwtable
define internal ptr @UnrollDoublesToFloat(ptr noundef %0, ptr noundef %1, ptr noundef %2, i32 noundef %3) #0 {
  %5 = alloca ptr, align 8
  %6 = alloca ptr, align 8
  %7 = alloca ptr, align 8
  %8 = alloca ptr, align 8
  %9 = alloca i32, align 4
  %10 = alloca i32, align 4
  %11 = alloca i32, align 4
  %12 = alloca i32, align 4
  %13 = alloca i32, align 4
  %14 = alloca i32, align 4
  %15 = alloca i32, align 4
  %16 = alloca i32, align 4
  %17 = alloca i32, align 4
  %18 = alloca double, align 8
  %19 = alloca i32, align 4
  %20 = alloca i32, align 4
  %21 = alloca double, align 8
  %22 = alloca double, align 8
  %23 = alloca ptr, align 8
  %24 = alloca i32, align 4
  %25 = alloca float, align 4
  store ptr %0, ptr %6, align 8
  store ptr %1, ptr %7, align 8
  store ptr %2, ptr %8, align 8
  store i32 %3, ptr %9, align 4
  %26 = load ptr, ptr %6, align 8
  %27 = getelementptr inbounds %struct._cmstransform_struct, ptr %26, i32 0, i32 0
  %28 = load i32, ptr %27, align 8
  %29 = lshr i32 %28, 3
  %30 = and i32 %29, 15
  store i32 %30, ptr %10, align 4
  %31 = load ptr, ptr %6, align 8
  %32 = getelementptr inbounds %struct._cmstransform_struct, ptr %31, i32 0, i32 0
  %33 = load i32, ptr %32, align 8
  %34 = lshr i32 %33, 10
  %35 = and i32 %34, 1
  store i32 %35, ptr %11, align 4
  %36 = load ptr, ptr %6, align 8
  %37 = getelementptr inbounds %struct._cmstransform_struct, ptr %36, i32 0, i32 0
  %38 = load i32, ptr %37, align 8
  %39 = lshr i32 %38, 13
  %40 = and i32 %39, 1
  store i32 %40, ptr %12, align 4
  %41 = load ptr, ptr %6, align 8
  %42 = getelementptr inbounds %struct._cmstransform_struct, ptr %41, i32 0, i32 0
  %43 = load i32, ptr %42, align 8
  %44 = lshr i32 %43, 14
  %45 = and i32 %44, 1
  store i32 %45, ptr %13, align 4
  %46 = load ptr, ptr %6, align 8
  %47 = getelementptr inbounds %struct._cmstransform_struct, ptr %46, i32 0, i32 0
  %48 = load i32, ptr %47, align 8
  %49 = lshr i32 %48, 7
  %50 = and i32 %49, 7
  store i32 %50, ptr %14, align 4
  %51 = load i32, ptr %11, align 4
  %52 = load i32, ptr %13, align 4
  %53 = xor i32 %51, %52
  store i32 %53, ptr %15, align 4
  %54 = load ptr, ptr %6, align 8
  %55 = getelementptr inbounds %struct._cmstransform_struct, ptr %54, i32 0, i32 0
  %56 = load i32, ptr %55, align 8
  %57 = lshr i32 %56, 12
  %58 = and i32 %57, 1
  store i32 %58, ptr %16, align 4
  %59 = load ptr, ptr %6, align 8
  %60 = getelementptr inbounds %struct._cmstransform_struct, ptr %59, i32 0, i32 0
  %61 = load i32, ptr %60, align 8
  %62 = lshr i32 %61, 23
  %63 = and i32 %62, 1
  store i32 %63, ptr %17, align 4
  store i32 0, ptr %20, align 4
  %64 = load ptr, ptr %6, align 8
  %65 = getelementptr inbounds %struct._cmstransform_struct, ptr %64, i32 0, i32 0
  %66 = load i32, ptr %65, align 8
  %67 = call i32 @IsInkSpace(i32 noundef %66)
  %68 = icmp ne i32 %67, 0
  %69 = select i1 %68, double 1.000000e+02, double 1.000000e+00
  store double %69, ptr %21, align 8
  store double 1.000000e+00, ptr %22, align 8
  %70 = load ptr, ptr %8, align 8
  store ptr %70, ptr %23, align 8
  %71 = load ptr, ptr %6, align 8
  %72 = getelementptr inbounds %struct._cmstransform_struct, ptr %71, i32 0, i32 0
  %73 = load i32, ptr %72, align 8
  %74 = call i32 @PixelSize(i32 noundef %73)
  %75 = load i32, ptr %9, align 4
  %76 = udiv i32 %75, %74
  store i32 %76, ptr %9, align 4
  %77 = load i32, ptr %17, align 4
  %78 = icmp ne i32 %77, 0
  br i1 %78, label %79, label %122

79:                                               ; preds = %4
  %80 = load i32, ptr %14, align 4
  %81 = icmp ne i32 %80, 0
  br i1 %81, label %82, label %122

82:                                               ; preds = %79
  %83 = load i32, ptr %16, align 4
  %84 = icmp ne i32 %83, 0
  br i1 %84, label %85, label %104

85:                                               ; preds = %82
  %86 = load i32, ptr %15, align 4
  %87 = icmp ne i32 %86, 0
  br i1 %87, label %88, label %92

88:                                               ; preds = %85
  %89 = load ptr, ptr %23, align 8
  %90 = getelementptr inbounds double, ptr %89, i64 0
  %91 = load double, ptr %90, align 8
  br label %100

92:                                               ; preds = %85
  %93 = load ptr, ptr %23, align 8
  %94 = load i32, ptr %10, align 4
  %95 = load i32, ptr %9, align 4
  %96 = mul i32 %94, %95
  %97 = zext i32 %96 to i64
  %98 = getelementptr inbounds double, ptr %93, i64 %97
  %99 = load double, ptr %98, align 8
  br label %100

100:                                              ; preds = %92, %88
  %101 = phi double [ %91, %88 ], [ %99, %92 ]
  %102 = load double, ptr %21, align 8
  %103 = fdiv double %101, %102
  store double %103, ptr %22, align 8
  br label %121

104:                                              ; preds = %82
  %105 = load i32, ptr %15, align 4
  %106 = icmp ne i32 %105, 0
  br i1 %106, label %107, label %111

107:                                              ; preds = %104
  %108 = load ptr, ptr %23, align 8
  %109 = getelementptr inbounds double, ptr %108, i64 0
  %110 = load double, ptr %109, align 8
  br label %117

111:                                              ; preds = %104
  %112 = load ptr, ptr %23, align 8
  %113 = load i32, ptr %10, align 4
  %114 = zext i32 %113 to i64
  %115 = getelementptr inbounds double, ptr %112, i64 %114
  %116 = load double, ptr %115, align 8
  br label %117

117:                                              ; preds = %111, %107
  %118 = phi double [ %110, %107 ], [ %116, %111 ]
  %119 = load double, ptr %21, align 8
  %120 = fdiv double %118, %119
  store double %120, ptr %22, align 8
  br label %121

121:                                              ; preds = %117, %100
  br label %122

122:                                              ; preds = %121, %79, %4
  %123 = load i32, ptr %15, align 4
  %124 = icmp ne i32 %123, 0
  br i1 %124, label %125, label %127

125:                                              ; preds = %122
  %126 = load i32, ptr %14, align 4
  store i32 %126, ptr %20, align 4
  br label %127

127:                                              ; preds = %125, %122
  store i32 0, ptr %19, align 4
  br label %128

128:                                              ; preds = %192, %127
  %129 = load i32, ptr %19, align 4
  %130 = load i32, ptr %10, align 4
  %131 = icmp ult i32 %129, %130
  br i1 %131, label %132, label %195

132:                                              ; preds = %128
  %133 = load i32, ptr %11, align 4
  %134 = icmp ne i32 %133, 0
  br i1 %134, label %135, label %140

135:                                              ; preds = %132
  %136 = load i32, ptr %10, align 4
  %137 = load i32, ptr %19, align 4
  %138 = sub i32 %136, %137
  %139 = sub i32 %138, 1
  br label %142

140:                                              ; preds = %132
  %141 = load i32, ptr %19, align 4
  br label %142

142:                                              ; preds = %140, %135
  %143 = phi i32 [ %139, %135 ], [ %141, %140 ]
  store i32 %143, ptr %24, align 4
  %144 = load i32, ptr %16, align 4
  %145 = icmp ne i32 %144, 0
  br i1 %145, label %146, label %156

146:                                              ; preds = %142
  %147 = load ptr, ptr %8, align 8
  %148 = load i32, ptr %19, align 4
  %149 = load i32, ptr %20, align 4
  %150 = add i32 %148, %149
  %151 = load i32, ptr %9, align 4
  %152 = mul i32 %150, %151
  %153 = zext i32 %152 to i64
  %154 = getelementptr inbounds double, ptr %147, i64 %153
  %155 = load double, ptr %154, align 8
  store double %155, ptr %18, align 8
  br label %164

156:                                              ; preds = %142
  %157 = load ptr, ptr %8, align 8
  %158 = load i32, ptr %19, align 4
  %159 = load i32, ptr %20, align 4
  %160 = add i32 %158, %159
  %161 = zext i32 %160 to i64
  %162 = getelementptr inbounds double, ptr %157, i64 %161
  %163 = load double, ptr %162, align 8
  store double %163, ptr %18, align 8
  br label %164

164:                                              ; preds = %156, %146
  %165 = load i32, ptr %17, align 4
  %166 = icmp ne i32 %165, 0
  br i1 %166, label %167, label %174

167:                                              ; preds = %164
  %168 = load double, ptr %22, align 8
  %169 = fcmp ogt double %168, 0.000000e+00
  br i1 %169, label %170, label %174

170:                                              ; preds = %167
  %171 = load double, ptr %22, align 8
  %172 = load double, ptr %18, align 8
  %173 = fdiv double %172, %171
  store double %173, ptr %18, align 8
  br label %174

174:                                              ; preds = %170, %167, %164
  %175 = load double, ptr %21, align 8
  %176 = load double, ptr %18, align 8
  %177 = fdiv double %176, %175
  store double %177, ptr %18, align 8
  %178 = load i32, ptr %12, align 4
  %179 = icmp ne i32 %178, 0
  br i1 %179, label %180, label %183

180:                                              ; preds = %174
  %181 = load double, ptr %18, align 8
  %182 = fsub double 1.000000e+00, %181
  br label %185

183:                                              ; preds = %174
  %184 = load double, ptr %18, align 8
  br label %185

185:                                              ; preds = %183, %180
  %186 = phi double [ %182, %180 ], [ %184, %183 ]
  %187 = fptrunc double %186 to float
  %188 = load ptr, ptr %7, align 8
  %189 = load i32, ptr %24, align 4
  %190 = zext i32 %189 to i64
  %191 = getelementptr inbounds float, ptr %188, i64 %190
  store float %187, ptr %191, align 4
  br label %192

192:                                              ; preds = %185
  %193 = load i32, ptr %19, align 4
  %194 = add i32 %193, 1
  store i32 %194, ptr %19, align 4
  br label %128, !llvm.loop !22

195:                                              ; preds = %128
  %196 = load i32, ptr %14, align 4
  %197 = icmp eq i32 %196, 0
  br i1 %197, label %198, label %219

198:                                              ; preds = %195
  %199 = load i32, ptr %13, align 4
  %200 = icmp ne i32 %199, 0
  br i1 %200, label %201, label %219

201:                                              ; preds = %198
  %202 = load ptr, ptr %7, align 8
  %203 = getelementptr inbounds float, ptr %202, i64 0
  %204 = load float, ptr %203, align 4
  store float %204, ptr %25, align 4
  %205 = load ptr, ptr %7, align 8
  %206 = getelementptr inbounds float, ptr %205, i64 0
  %207 = load ptr, ptr %7, align 8
  %208 = getelementptr inbounds float, ptr %207, i64 1
  %209 = load i32, ptr %10, align 4
  %210 = sub i32 %209, 1
  %211 = zext i32 %210 to i64
  %212 = mul i64 %211, 4
  call void @llvm.memmove.p0.p0.i64(ptr align 4 %206, ptr align 4 %208, i64 %212, i1 false)
  %213 = load float, ptr %25, align 4
  %214 = load ptr, ptr %7, align 8
  %215 = load i32, ptr %10, align 4
  %216 = sub i32 %215, 1
  %217 = zext i32 %216 to i64
  %218 = getelementptr inbounds float, ptr %214, i64 %217
  store float %213, ptr %218, align 4
  br label %219

219:                                              ; preds = %201, %198, %195
  %220 = load ptr, ptr %6, align 8
  %221 = getelementptr inbounds %struct._cmstransform_struct, ptr %220, i32 0, i32 0
  %222 = load i32, ptr %221, align 8
  %223 = lshr i32 %222, 12
  %224 = and i32 %223, 1
  %225 = icmp ne i32 %224, 0
  br i1 %225, label %226, label %229

226:                                              ; preds = %219
  %227 = load ptr, ptr %8, align 8
  %228 = getelementptr inbounds i8, ptr %227, i64 8
  store ptr %228, ptr %5, align 8
  br label %237

229:                                              ; preds = %219
  %230 = load ptr, ptr %8, align 8
  %231 = load i32, ptr %10, align 4
  %232 = load i32, ptr %14, align 4
  %233 = add i32 %231, %232
  %234 = zext i32 %233 to i64
  %235 = mul i64 %234, 8
  %236 = getelementptr inbounds i8, ptr %230, i64 %235
  store ptr %236, ptr %5, align 8
  br label %237

237:                                              ; preds = %229, %226
  %238 = load ptr, ptr %5, align 8
  ret ptr %238
}