; Function Attrs: nofree norecurse nosync nounwind memory(argmem: readwrite) uwtable
define internal ptr @UnrollDoublesToFloat(ptr nocapture noundef readonly %0, ptr nocapture noundef %1, ptr noundef readonly %2, i32 noundef %3) #4 {
  %5 = load i32, ptr %0, align 8
  %.fr = freeze i32 %5
  %6 = lshr i32 %.fr, 3
  %7 = and i32 %6, 15
  %8 = lshr i32 %.fr, 10
  %9 = and i32 %8, 1
  %10 = lshr i32 %.fr, 14
  %11 = and i32 %10, 1
  %12 = lshr i32 %.fr, 7
  %13 = and i32 %12, 7
  %14 = lshr i32 %.fr, 12
  %15 = and i32 %14, 1
  %16 = lshr i32 %.fr, 16
  %17 = and i32 %16, 31
  %switch.tableidx = add nsw i32 %17, -5
  %18 = icmp ult i32 %switch.tableidx, 25
  br i1 %18, label %switch.lookup, label %IsInkSpace.exit

switch.lookup:                                    ; preds = %4
  %19 = zext nneg i32 %switch.tableidx to i64
  %switch.gep = getelementptr inbounds [25 x double], ptr @switch.table.PackDoublesFromFloat, i64 0, i64 %19
  %switch.load = load double, ptr %switch.gep, align 8
  br label %IsInkSpace.exit

IsInkSpace.exit:                                  ; preds = %4, %switch.lookup
  %20 = phi double [ %switch.load, %switch.lookup ], [ 1.000000e+00, %4 ]
  %21 = and i32 %.fr, 7
  %22 = icmp eq i32 %21, 0
  %..i = select i1 %22, i32 8, i32 %21
  %23 = udiv i32 %3, %..i
  %24 = and i32 %.fr, 8388608
  %25 = icmp ne i32 %24, 0
  %26 = icmp ne i32 %13, 0
  %or.cond = and i1 %25, %26
  br i1 %or.cond, label %.sink.split, label %30

.sink.split:                                      ; preds = %IsInkSpace.exit
  %.not80 = icmp eq i32 %15, 0
  %.not81 = icmp eq i32 %9, %11
  %27 = select i1 %.not80, i32 1, i32 %23
  %.sink = mul i32 %7, %27
  %narrow = select i1 %.not81, i32 %.sink, i32 0
  %.in83.idx = zext i32 %narrow to i64
  %.in83 = getelementptr inbounds double, ptr %2, i64 %.in83.idx
  %28 = load double, ptr %.in83, align 8
  %.fr169 = freeze double %28
  %29 = fdiv double %.fr169, %20
  br label %30

30:                                               ; preds = %.sink.split, %IsInkSpace.exit
  %.075 = phi double [ 1.000000e+00, %IsInkSpace.exit ], [ %29, %.sink.split ]
  %.not84 = icmp eq i32 %9, %11
  %spec.select = select i1 %.not84, i32 0, i32 %13
  %.not = icmp eq i32 %7, 0
  br i1 %.not, label %._crit_edge, label %.lr.ph

.lr.ph:                                           ; preds = %30
  %.not86 = icmp eq i32 %9, 0
  %.not87 = icmp eq i32 %15, 0
  %31 = select i1 %.not87, i32 1, i32 %23
  %32 = fcmp ogt double %.075, 0.000000e+00
  %or.cond3 = and i1 %25, %32
  %33 = and i32 %.fr, 8192
  %.not88 = icmp eq i32 %33, 0
  %wide.trip.count160 = zext nneg i32 %7 to i64
  br i1 %.not86, label %.lr.ph.split.us, label %.lr.ph.split

.lr.ph.split.us:                                  ; preds = %.lr.ph
  br i1 %or.cond3, label %.lr.ph.split.us.split.us, label %.lr.ph.split.us.split

.lr.ph.split.us.split.us:                         ; preds = %.lr.ph.split.us
  br i1 %.not88, label %.lr.ph.split.us.split.us.split.us, label %.lr.ph.split.us.split.us.split

.lr.ph.split.us.split.us.split.us:                ; preds = %.lr.ph.split.us.split.us, %.lr.ph.split.us.split.us.split.us
  %indvars.iv157 = phi i64 [ %indvars.iv.next158, %.lr.ph.split.us.split.us.split.us ], [ 0, %.lr.ph.split.us.split.us ]
  %34 = trunc i64 %indvars.iv157 to i32
  %35 = add i32 %spec.select, %34
  %.pn.in.us.us.us = mul i32 %35, %31
  %.pn.us.us.us = zext i32 %.pn.in.us.us.us to i64
  %.074.in.us.us.us = getelementptr inbounds double, ptr %2, i64 %.pn.us.us.us
  %.074.us.us.us = load double, ptr %.074.in.us.us.us, align 8
  %36 = fdiv double %.074.us.us.us, %.075
  %37 = fdiv double %36, %20
  %38 = fptrunc double %37 to float
  %39 = getelementptr inbounds float, ptr %1, i64 %indvars.iv157
  store float %38, ptr %39, align 4
  %indvars.iv.next158 = add nuw nsw i64 %indvars.iv157, 1
  %exitcond161.not = icmp eq i64 %indvars.iv.next158, %wide.trip.count160
  br i1 %exitcond161.not, label %._crit_edge, label %.lr.ph.split.us.split.us.split.us, !llvm.loop !22

.lr.ph.split.us.split.us.split:                   ; preds = %.lr.ph.split.us.split.us, %.lr.ph.split.us.split.us.split
  %indvars.iv152 = phi i64 [ %indvars.iv.next153, %.lr.ph.split.us.split.us.split ], [ 0, %.lr.ph.split.us.split.us ]
  %40 = trunc i64 %indvars.iv152 to i32
  %41 = add i32 %spec.select, %40
  %.pn.in.us.us = mul i32 %41, %31
  %.pn.us.us = zext i32 %.pn.in.us.us to i64
  %.074.in.us.us = getelementptr inbounds double, ptr %2, i64 %.pn.us.us
  %.074.us.us = load double, ptr %.074.in.us.us, align 8
  %42 = fdiv double %.074.us.us, %.075
  %43 = fdiv double %42, %20
  %44 = fsub double 1.000000e+00, %43
  %45 = fptrunc double %44 to float
  %46 = getelementptr inbounds float, ptr %1, i64 %indvars.iv152
  store float %45, ptr %46, align 4
  %indvars.iv.next153 = add nuw nsw i64 %indvars.iv152, 1
  %exitcond156.not = icmp eq i64 %indvars.iv.next153, %wide.trip.count160
  br i1 %exitcond156.not, label %._crit_edge, label %.lr.ph.split.us.split.us.split, !llvm.loop !22

.lr.ph.split.us.split:                            ; preds = %.lr.ph.split.us
  br i1 %.not88, label %.lr.ph.split.us.split.split.us, label %.lr.ph.split.us.split.split

.lr.ph.split.us.split.split.us:                   ; preds = %.lr.ph.split.us.split, %.lr.ph.split.us.split.split.us
  %indvars.iv147 = phi i64 [ %indvars.iv.next148, %.lr.ph.split.us.split.split.us ], [ 0, %.lr.ph.split.us.split ]
  %47 = trunc i64 %indvars.iv147 to i32
  %48 = add i32 %spec.select, %47
  %.pn.in.us.us110 = mul i32 %48, %31
  %.pn.us.us111 = zext i32 %.pn.in.us.us110 to i64
  %.074.in.us.us112 = getelementptr inbounds double, ptr %2, i64 %.pn.us.us111
  %.074.us.us113 = load double, ptr %.074.in.us.us112, align 8
  %49 = fdiv double %.074.us.us113, %20
  %50 = fptrunc double %49 to float
  %51 = getelementptr inbounds float, ptr %1, i64 %indvars.iv147
  store float %50, ptr %51, align 4
  %indvars.iv.next148 = add nuw nsw i64 %indvars.iv147, 1
  %exitcond151.not = icmp eq i64 %indvars.iv.next148, %wide.trip.count160
  br i1 %exitcond151.not, label %._crit_edge, label %.lr.ph.split.us.split.split.us, !llvm.loop !22

.lr.ph.split.us.split.split:                      ; preds = %.lr.ph.split.us.split, %.lr.ph.split.us.split.split
  %indvars.iv142 = phi i64 [ %indvars.iv.next143, %.lr.ph.split.us.split.split ], [ 0, %.lr.ph.split.us.split ]
  %52 = trunc i64 %indvars.iv142 to i32
  %53 = add i32 %spec.select, %52
  %.pn.in.us = mul i32 %53, %31
  %.pn.us = zext i32 %.pn.in.us to i64
  %.074.in.us = getelementptr inbounds double, ptr %2, i64 %.pn.us
  %.074.us = load double, ptr %.074.in.us, align 8
  %54 = fdiv double %.074.us, %20
  %55 = fsub double 1.000000e+00, %54
  %56 = fptrunc double %55 to float
  %57 = getelementptr inbounds float, ptr %1, i64 %indvars.iv142
  store float %56, ptr %57, align 4
  %indvars.iv.next143 = add nuw nsw i64 %indvars.iv142, 1
  %exitcond146.not = icmp eq i64 %indvars.iv.next143, %wide.trip.count160
  br i1 %exitcond146.not, label %._crit_edge, label %.lr.ph.split.us.split.split, !llvm.loop !22

.lr.ph.split:                                     ; preds = %.lr.ph
  br i1 %or.cond3, label %.lr.ph.split.split.us, label %.lr.ph.split.split

.lr.ph.split.split.us:                            ; preds = %.lr.ph.split
  br i1 %.not88, label %.lr.ph.split.split.us.split.us, label %.lr.ph.split.split.us.split

.lr.ph.split.split.us.split.us:                   ; preds = %.lr.ph.split.split.us, %.lr.ph.split.split.us.split.us
  %indvars.iv137 = phi i64 [ %indvars.iv.next138, %.lr.ph.split.split.us.split.us ], [ 0, %.lr.ph.split.split.us ]
  %58 = trunc nuw nsw i64 %indvars.iv137 to i32
  %59 = xor i32 %58, -1
  %60 = add nsw i32 %7, %59
  %61 = trunc i64 %indvars.iv137 to i32
  %62 = add i32 %spec.select, %61
  %.pn.in.us95.us = mul i32 %62, %31
  %.pn.us96.us = zext i32 %.pn.in.us95.us to i64
  %.074.in.us97.us = getelementptr inbounds double, ptr %2, i64 %.pn.us96.us
  %.074.us98.us = load double, ptr %.074.in.us97.us, align 8
  %63 = fdiv double %.074.us98.us, %.075
  %64 = fdiv double %63, %20
  %65 = fptrunc double %64 to float
  %66 = zext i32 %60 to i64
  %67 = getelementptr inbounds float, ptr %1, i64 %66
  store float %65, ptr %67, align 4
  %indvars.iv.next138 = add nuw nsw i64 %indvars.iv137, 1
  %exitcond141.not = icmp eq i64 %indvars.iv.next138, %wide.trip.count160
  br i1 %exitcond141.not, label %._crit_edge, label %.lr.ph.split.split.us.split.us, !llvm.loop !22

.lr.ph.split.split.us.split:                      ; preds = %.lr.ph.split.split.us, %.lr.ph.split.split.us.split
  %indvars.iv132 = phi i64 [ %indvars.iv.next133, %.lr.ph.split.split.us.split ], [ 0, %.lr.ph.split.split.us ]
  %68 = trunc nuw nsw i64 %indvars.iv132 to i32
  %69 = xor i32 %68, -1
  %70 = add nsw i32 %7, %69
  %71 = trunc i64 %indvars.iv132 to i32
  %72 = add i32 %spec.select, %71
  %.pn.in.us95 = mul i32 %72, %31
  %.pn.us96 = zext i32 %.pn.in.us95 to i64
  %.074.in.us97 = getelementptr inbounds double, ptr %2, i64 %.pn.us96
  %.074.us98 = load double, ptr %.074.in.us97, align 8
  %73 = fdiv double %.074.us98, %.075
  %74 = fdiv double %73, %20
  %75 = fsub double 1.000000e+00, %74
  %76 = fptrunc double %75 to float
  %77 = zext i32 %70 to i64
  %78 = getelementptr inbounds float, ptr %1, i64 %77
  store float %76, ptr %78, align 4
  %indvars.iv.next133 = add nuw nsw i64 %indvars.iv132, 1
  %exitcond136.not = icmp eq i64 %indvars.iv.next133, %wide.trip.count160
  br i1 %exitcond136.not, label %._crit_edge, label %.lr.ph.split.split.us.split, !llvm.loop !22

.lr.ph.split.split:                               ; preds = %.lr.ph.split
  br i1 %.not88, label %.lr.ph.split.split.split.us, label %.lr.ph.split.split.split

.lr.ph.split.split.split.us:                      ; preds = %.lr.ph.split.split, %.lr.ph.split.split.split.us
  %indvars.iv127 = phi i64 [ %indvars.iv.next128, %.lr.ph.split.split.split.us ], [ 0, %.lr.ph.split.split ]
  %79 = trunc nuw nsw i64 %indvars.iv127 to i32
  %80 = xor i32 %79, -1
  %81 = add nsw i32 %7, %80
  %82 = trunc i64 %indvars.iv127 to i32
  %83 = add i32 %spec.select, %82
  %.pn.in.us101 = mul i32 %83, %31
  %.pn.us102 = zext i32 %.pn.in.us101 to i64
  %.074.in.us103 = getelementptr inbounds double, ptr %2, i64 %.pn.us102
  %.074.us104 = load double, ptr %.074.in.us103, align 8
  %84 = fdiv double %.074.us104, %20
  %85 = fptrunc double %84 to float
  %86 = zext i32 %81 to i64
  %87 = getelementptr inbounds float, ptr %1, i64 %86
  store float %85, ptr %87, align 4
  %indvars.iv.next128 = add nuw nsw i64 %indvars.iv127, 1
  %exitcond131.not = icmp eq i64 %indvars.iv.next128, %wide.trip.count160
  br i1 %exitcond131.not, label %._crit_edge, label %.lr.ph.split.split.split.us, !llvm.loop !22

.lr.ph.split.split.split:                         ; preds = %.lr.ph.split.split, %.lr.ph.split.split.split
  %indvars.iv = phi i64 [ %indvars.iv.next, %.lr.ph.split.split.split ], [ 0, %.lr.ph.split.split ]
  %88 = trunc nuw nsw i64 %indvars.iv to i32
  %89 = xor i32 %88, -1
  %90 = add nsw i32 %7, %89
  %91 = trunc i64 %indvars.iv to i32
  %92 = add i32 %spec.select, %91
  %.pn.in = mul i32 %92, %31
  %.pn = zext i32 %.pn.in to i64
  %.074.in = getelementptr inbounds double, ptr %2, i64 %.pn
  %.074 = load double, ptr %.074.in, align 8
  %93 = fdiv double %.074, %20
  %94 = fsub double 1.000000e+00, %93
  %95 = fptrunc double %94 to float
  %96 = zext i32 %90 to i64
  %97 = getelementptr inbounds float, ptr %1, i64 %96
  store float %95, ptr %97, align 4
  %indvars.iv.next = add nuw nsw i64 %indvars.iv, 1
  %exitcond.not = icmp eq i64 %indvars.iv.next, %wide.trip.count160
  br i1 %exitcond.not, label %._crit_edge, label %.lr.ph.split.split.split, !llvm.loop !22

._crit_edge:                                      ; preds = %.lr.ph.split.split.split, %.lr.ph.split.split.split.us, %.lr.ph.split.split.us.split, %.lr.ph.split.split.us.split.us, %.lr.ph.split.us.split.split, %.lr.ph.split.us.split.split.us, %.lr.ph.split.us.split.us.split, %.lr.ph.split.us.split.us.split.us, %30
  %98 = icmp eq i32 %13, 0
  %99 = icmp ne i32 %11, 0
  %or.cond5 = and i1 %98, %99
  br i1 %or.cond5, label %100, label %107

100:                                              ; preds = %._crit_edge
  %101 = load float, ptr %1, align 4
  %102 = getelementptr inbounds i8, ptr %1, i64 4
  %103 = add nsw i32 %7, -1
  %104 = zext i32 %103 to i64
  %105 = shl nuw nsw i64 %104, 2
  tail call void @llvm.memmove.p0.p0.i64(ptr nonnull align 4 %1, ptr nonnull align 4 %102, i64 %105, i1 false)
  %106 = getelementptr inbounds float, ptr %1, i64 %104
  store float %101, ptr %106, align 4
  br label %107

107:                                              ; preds = %100, %._crit_edge
  %108 = load i32, ptr %0, align 8
  %109 = and i32 %108, 4096
  %.not85 = icmp eq i32 %109, 0
  %110 = add nuw nsw i32 %7, %13
  %111 = shl nuw nsw i32 %110, 3
  %narrow92 = select i1 %.not85, i32 %111, i32 8
  %.0.v = zext nneg i32 %narrow92 to i64
  %.0 = getelementptr inbounds i8, ptr %2, i64 %.0.v
  ret ptr %.0
}